target datalayout = "e-m:e-p270:32:32-p271:32:32-p272:64:64-i64:64-i128:128-f80:128-n8:16:32:64-S128"
target triple = "x86_64-pc-linux-gnu"

%struct.H5HF_t = type { ptr, ptr }
%struct.H5HF_hdr_t = type { %struct.H5C_cache_entry_t, i32, i32, i8, i8, i8, i8, %struct.H5HF_dtable_t, i64, i64, i32, i64, i64, %struct.H5O_pline_t, i64, i32, i64, i64, i64, i64, i64, i64, i64, i64, i64, i64, i64, i32, ptr, i64, i8, i8, i8, ptr, i32, ptr, %struct.H5HF_block_iter_t, ptr, i64, i8, i8, i64, i8, i8, i8, i8 }
%struct.H5C_cache_entry_t = type { ptr, i64, i64, ptr, i8, ptr, i8, i8, i8, i8, i32, i8, i8, i8, i8, i8, i32, ptr, i32, i32, i32, i32, i32, i8, i8, ptr, ptr, ptr, ptr, ptr, ptr, i8, i32, i8, i64, ptr, i64, i64, i32, i8, i32, i32, i8, ptr, ptr, ptr }
%struct.H5HF_dtable_t = type { %struct.H5HF_dtable_cparam_t, i64, i32, i32, i32, i32, i32, i32, i32, i64, ptr, ptr, ptr, ptr }
%struct.H5HF_dtable_cparam_t = type { i32, i64, i64, i32, i32 }
%struct.H5O_pline_t = type { %struct.H5O_shared_t, i32, i64, i64, ptr }
%struct.H5O_shared_t = type { i32, ptr, i32, %union.anon }
%union.anon = type { %struct.H5O_mesg_loc_t }
%struct.H5O_mesg_loc_t = type { i32, i64 }
%struct.H5HF_block_iter_t = type { i8, ptr }

@H5HF_init_g = global i8 0, align 1
@H5_libterm_g = external global i8, align 1
@.str = private unnamed_addr constant [98 x i8] c"generated/home/dtcxzyw/WorkSpace/Projects/compilers/llvm-opt-benchmark/bench/hdf5/hdf5/src/H5HF.c\00", align 1
@H5E_HEAP_g = external global i64, align 8
@H5E_UNSUPPORTED_g = external global i64, align 8
@H5E_VERSION_g = external global i64, align 8
@.str.14 = private unnamed_addr constant [26 x i8] c"incorrect heap ID version\00", align 1
@stderr = external global ptr, align 8
@.str.18 = private unnamed_addr constant [37 x i8] c"%s: Heap ID type not supported yet!\0A\00", align 1
@.str.19 = private unnamed_addr constant [31 x i8] c"heap ID type not supported yet\00", align 1
@__func__.H5HF_write = private unnamed_addr constant [11 x i8] c"H5HF_write\00", align 1
@H5E_WRITEERROR_g = external global i64, align 8
@.str.24 = private unnamed_addr constant [37 x i8] c"can't write to 'managed' heap object\00", align 1
@.str.25 = private unnamed_addr constant [34 x i8] c"can't write to 'huge' heap object\00", align 1
@.str.26 = private unnamed_addr constant [42 x i8] c"modifying 'tiny' object not supported yet\00", align 1

; Function Attrs: nounwind uwtable
define i32 @H5HF_write(ptr noundef %0, ptr noundef %1, ptr noundef %2, ptr noundef %3) #0 {
  %5 = alloca ptr, align 8
  %6 = alloca ptr, align 8
  %7 = alloca ptr, align 8
  %8 = alloca ptr, align 8
  %9 = alloca ptr, align 8
  %10 = alloca i8, align 1
  %11 = alloca i32, align 4
  %12 = alloca i8, align 1
  store ptr %0, ptr %5, align 8, !tbaa !17
  store ptr %1, ptr %6, align 8, !tbaa !3
  store ptr %2, ptr %7, align 8, !tbaa !57
  store ptr %3, ptr %8, align 8, !tbaa !3
  call void @llvm.lifetime.start.p0(i64 8, ptr %9) #6
  %13 = load ptr, ptr %6, align 8, !tbaa !3
  store ptr %13, ptr %9, align 8, !tbaa !52
  call void @llvm.lifetime.start.p0(i64 1, ptr %10) #6
  call void @llvm.lifetime.start.p0(i64 4, ptr %11) #6
  store i32 0, ptr %11, align 4, !tbaa !24
  call void @llvm.lifetime.start.p0(i64 1, ptr %12) #6
  store i8 0, ptr %12, align 1, !tbaa !9
  %14 = load i8, ptr @H5HF_init_g, align 1, !tbaa !9, !range !11, !noundef !12
  %15 = trunc i8 %14 to i1
  br i1 %15, label %20, label %16

16:                                               ; preds = %4
  %17 = load i8, ptr @H5_libterm_g, align 1, !tbaa !9, !range !11, !noundef !12
  %18 = trunc i8 %17 to i1
  %19 = xor i1 %18, true
  br label %20

20:                                               ; preds = %16, %4
  %21 = phi i1 [ false, %4 ], [ %19, %16 ]
  %22 = xor i1 %21, true
  %23 = xor i1 %22, true
  %24 = zext i1 %23 to i32
  %25 = sext i32 %24 to i64
  %26 = call i64 @llvm.expect.i64(i64 %25, i64 0)
  %27 = icmp ne i64 %26, 0
  br i1 %27, label %28, label %29

28:                                               ; preds = %20
  store i8 1, ptr @H5HF_init_g, align 1, !tbaa !9
  br label %29

29:                                               ; preds = %28, %20
  %30 = load i8, ptr @H5HF_init_g, align 1, !tbaa !9, !range !11, !noundef !12
  %31 = trunc i8 %30 to i1
  br i1 %31, label %36, label %32

32:                                               ; preds = %29
  %33 = load i8, ptr @H5_libterm_g, align 1, !tbaa !9, !range !11, !noundef !12
  %34 = trunc i8 %33 to i1
  %35 = xor i1 %34, true
  br label %36

36:                                               ; preds = %32, %29
  %37 = phi i1 [ true, %29 ], [ %35, %32 ]
  %38 = xor i1 %37, true
  %39 = xor i1 %38, true
  %40 = zext i1 %39 to i32
  %41 = sext i32 %40 to i64
  %42 = call i64 @llvm.expect.i64(i64 %41, i64 1)
  %43 = icmp ne i64 %42, 0
  br i1 %43, label %44, label %192

44:                                               ; preds = %36
  %45 = load ptr, ptr %9, align 8, !tbaa !52
  %46 = load i8, ptr %45, align 1, !tbaa !54
  store i8 %46, ptr %10, align 1, !tbaa !54
  %47 = load i8, ptr %10, align 1, !tbaa !54
  %48 = zext i8 %47 to i32
  %49 = and i32 %48, 192
  %50 = icmp ne i32 %49, 0
  br i1 %50, label %51, label %70

51:                                               ; preds = %44
  br label %52

52:                                               ; preds = %51
  br label %53

53:                                               ; preds = %52
  br label %54

54:                                               ; preds = %53
  %55 = load i64, ptr @H5E_HEAP_g, align 8, !tbaa !7
  %56 = load i64, ptr @H5E_VERSION_g, align 8, !tbaa !7
  %57 = call i32 (ptr, ptr, i32, i64, i64, ptr, ...) @H5E_printf_stack(ptr noundef @.str, ptr noundef @__func__.H5HF_write, i32 noundef 584, i64 noundef %55, i64 noundef %56, ptr noundef @.str.14)
  br label %58

58:                                               ; preds = %54
  br label %59

59:                                               ; preds = %58
  store i8 1, ptr %12, align 1, !tbaa !9
  %60 = load i8, ptr %12, align 1, !tbaa !9, !range !11, !noundef !12
  %61 = trunc i8 %60 to i1
  %62 = zext i1 %61 to i8
  store i8 %62, ptr %12, align 1, !tbaa !9
  br label %63

63:                                               ; preds = %59
  br label %64

64:                                               ; preds = %63
  br label %65

65:                                               ; preds = %64
  store i32 -1, ptr %11, align 4, !tbaa !24
  br label %191

66:                                               ; No predecessors!
  br label %67

67:                                               ; preds = %66
  br label %68

68:                                               ; preds = %67
  br label %69

69:                                               ; preds = %68
  br label %70

70:                                               ; preds = %69, %44
  %71 = load ptr, ptr %5, align 8, !tbaa !17
  %72 = getelementptr inbounds nuw %struct.H5HF_t, ptr %71, i32 0, i32 1
  %73 = load ptr, ptr %72, align 8, !tbaa !23
  %74 = load ptr, ptr %5, align 8, !tbaa !17
  %75 = getelementptr inbounds nuw %struct.H5HF_t, ptr %74, i32 0, i32 0
  %76 = load ptr, ptr %75, align 8, !tbaa !21
  %77 = getelementptr inbounds nuw %struct.H5HF_hdr_t, ptr %76, i32 0, i32 28
  store ptr %73, ptr %77, align 8, !tbaa !26
  %78 = load i8, ptr %10, align 1, !tbaa !54
  %79 = zext i8 %78 to i32
  %80 = and i32 %79, 48
  %81 = icmp eq i32 %80, 0
  br i1 %81, label %82, label %110

82:                                               ; preds = %70
  %83 = load ptr, ptr %5, align 8, !tbaa !17
  %84 = getelementptr inbounds nuw %struct.H5HF_t, ptr %83, i32 0, i32 0
  %85 = load ptr, ptr %84, align 8, !tbaa !21
  %86 = load ptr, ptr %9, align 8, !tbaa !52
  %87 = load ptr, ptr %8, align 8, !tbaa !3
  %88 = call i32 @H5HF__man_write(ptr noundef %85, ptr noundef %86, ptr noundef %87)
  %89 = icmp slt i32 %88, 0
  br i1 %89, label %90, label %109

90:                                               ; preds = %82
  br label %91

91:                                               ; preds = %90
  br label %92

92:                                               ; preds = %91
  br label %93

93:                                               ; preds = %92
  %94 = load i64, ptr @H5E_HEAP_g, align 8, !tbaa !7
  %95 = load i64, ptr @H5E_WRITEERROR_g, align 8, !tbaa !7
  %96 = call i32 (ptr, ptr, i32, i64, i64, ptr, ...) @H5E_printf_stack(ptr noundef @.str, ptr noundef @__func__.H5HF_write, i32 noundef 594, i64 noundef %94, i64 noundef %95, ptr noundef @.str.24)
  br label %97

97:                                               ; preds = %93
  br label %98

98:                                               ; preds = %97
  store i8 1, ptr %12, align 1, !tbaa !9
  %99 = load i8, ptr %12, align 1, !tbaa !9, !range !11, !noundef !12
  %100 = trunc i8 %99 to i1
  %101 = zext i1 %100 to i8
  store i8 %101, ptr %12, align 1, !tbaa !9
  br label %102

102:                                              ; preds = %98
  br label %103

103:                                              ; preds = %102
  br label %104

104:                                              ; preds = %103
  store i32 -1, ptr %11, align 4, !tbaa !24
  br label %191

105:                                              ; No predecessors!
  br label %106

106:                                              ; preds = %105
  br label %107

107:                                              ; preds = %106
  br label %108

108:                                              ; preds = %107
  br label %109

109:                                              ; preds = %108, %82
  br label %190

110:                                              ; preds = %70
  %111 = load i8, ptr %10, align 1, !tbaa !54
  %112 = zext i8 %111 to i32
  %113 = and i32 %112, 48
  %114 = icmp eq i32 %113, 16
  br i1 %114, label %115, label %143

115:                                              ; preds = %110
  %116 = load ptr, ptr %5, align 8, !tbaa !17
  %117 = getelementptr inbounds nuw %struct.H5HF_t, ptr %116, i32 0, i32 0
  %118 = load ptr, ptr %117, align 8, !tbaa !21
  %119 = load ptr, ptr %9, align 8, !tbaa !52
  %120 = load ptr, ptr %8, align 8, !tbaa !3
  %121 = call i32 @H5HF__huge_write(ptr noundef %118, ptr noundef %119, ptr noundef %120)
  %122 = icmp slt i32 %121, 0
  br i1 %122, label %123, label %142

123:                                              ; preds = %115
  br label %124

124:                                              ; preds = %123
  br label %125

125:                                              ; preds = %124
  br label %126

126:                                              ; preds = %125
  %127 = load i64, ptr @H5E_HEAP_g, align 8, !tbaa !7
  %128 = load i64, ptr @H5E_WRITEERROR_g, align 8, !tbaa !7
  %129 = call i32 (ptr, ptr, i32, i64, i64, ptr, ...) @H5E_printf_stack(ptr noundef @.str, ptr noundef @__func__.H5HF_write, i32 noundef 599, i64 noundef %127, i64 noundef %128, ptr noundef @.str.25)
  br label %130

130:                                              ; preds = %126
  br label %131

131:                                              ; preds = %130
  store i8 1, ptr %12, align 1, !tbaa !9
  %132 = load i8, ptr %12, align 1, !tbaa !9, !range !11, !noundef !12
  %133 = trunc i8 %132 to i1
  %134 = zext i1 %133 to i8
  store i8 %134, ptr %12, align 1, !tbaa !9
  br label %135

135:                                              ; preds = %131
  br label %136

136:                                              ; preds = %135
  br label %137

137:                                              ; preds = %136
  store i32 -1, ptr %11, align 4, !tbaa !24
  br label %191

138:                                              ; No predecessors!
  br label %139

139:                                              ; preds = %138
  br label %140

140:                                              ; preds = %139
  br label %141

141:                                              ; preds = %140
  br label %142

142:                                              ; preds = %141, %115
  br label %189

143:                                              ; preds = %110
  %144 = load i8, ptr %10, align 1, !tbaa !54
  %145 = zext i8 %144 to i32
  %146 = and i32 %145, 48
  %147 = icmp eq i32 %146, 32
  br i1 %147, label %148, label %167

148:                                              ; preds = %143
  br label %149

149:                                              ; preds = %148
  br label %150

150:                                              ; preds = %149
  br label %151

151:                                              ; preds = %150
  %152 = load i64, ptr @H5E_HEAP_g, align 8, !tbaa !7
  %153 = load i64, ptr @H5E_UNSUPPORTED_g, align 8, !tbaa !7
  %154 = call i32 (ptr, ptr, i32, i64, i64, ptr, ...) @H5E_printf_stack(ptr noundef @.str, ptr noundef @__func__.H5HF_write, i32 noundef 604, i64 noundef %152, i64 noundef %153, ptr noundef @.str.26)
  br label %155

155:                                              ; preds = %151
  br label %156

156:                                              ; preds = %155
  store i8 1, ptr %12, align 1, !tbaa !9
  %157 = load i8, ptr %12, align 1, !tbaa !9, !range !11, !noundef !12
  %158 = trunc i8 %157 to i1
  %159 = zext i1 %158 to i8
  store i8 %159, ptr %12, align 1, !tbaa !9
  br label %160

160:                                              ; preds = %156
  br label %161

161:                                              ; preds = %160
  br label %162

162:                                              ; preds = %161
  store i32 -1, ptr %11, align 4, !tbaa !24
  br label %191

163:                                              ; No predecessors!
  br label %164

164:                                              ; preds = %163
  br label %165

165:                                              ; preds = %164
  br label %166

166:                                              ; preds = %165
  br label %188

167:                                              ; preds = %143
  %168 = load ptr, ptr @stderr, align 8, !tbaa !55
  %169 = call i32 (ptr, ptr, ...) @fprintf(ptr noundef %168, ptr noundef @.str.18, ptr noundef @__func__.H5HF_write) #6
  br label %170

170:                                              ; preds = %167
  br label %171

171:                                              ; preds = %170
  br label %172

172:                                              ; preds = %171
  %173 = load i64, ptr @H5E_HEAP_g, align 8, !tbaa !7
  %174 = load i64, ptr @H5E_UNSUPPORTED_g, align 8, !tbaa !7
  %175 = call i32 (ptr, ptr, i32, i64, i64, ptr, ...) @H5E_printf_stack(ptr noundef @.str, ptr noundef @__func__.H5HF_write, i32 noundef 608, i64 noundef %173, i64 noundef %174, ptr noundef @.str.19)
  br label %176

176:                                              ; preds = %172
  br label %177

177:                                              ; preds = %176
  store i8 1, ptr %12, align 1, !tbaa !9
  %178 = load i8, ptr %12, align 1, !tbaa !9, !range !11, !noundef !12
  %179 = trunc i8 %178 to i1
  %180 = zext i1 %179 to i8
  store i8 %180, ptr %12, align 1, !tbaa !9
  br label %181

181:                                              ; preds = %177
  br label %182

182:                                              ; preds = %181
  br label %183

183:                                              ; preds = %182
  store i32 -1, ptr %11, align 4, !tbaa !24
  br label %191

184:                                              ; No predecessors!
  br label %185

185:                                              ; preds = %184
  br label %186

186:                                              ; preds = %185
  br label %187

187:                                              ; preds = %186
  br label %188

188:                                              ; preds = %187, %166
  br label %189

189:                                              ; preds = %188, %142
  br label %190

190:                                              ; preds = %189, %109
  br label %191

191:                                              ; preds = %190, %183, %162, %137, %104, %65
  br label %192

192:                                              ; preds = %191, %36
  %193 = load i32, ptr %11, align 4, !tbaa !24
  call void @llvm.lifetime.end.p0(i64 1, ptr %12) #6
  call void @llvm.lifetime.end.p0(i64 4, ptr %11) #6
  call void @llvm.lifetime.end.p0(i64 1, ptr %10) #6
  call void @llvm.lifetime.end.p0(i64 8, ptr %9) #6
  ret i32 %193
}